target datalayout = "e-m:e-p270:32:32-p271:32:32-p272:64:64-i64:64-i128:128-f80:128-n8:16:32:64-S128"
target triple = "x86_64-pc-linux-gnu"

; Function Attrs: nounwind uwtable
define hidden void @python_hashlib_Hacl_Hash_Blake2s_Simd128_update_multi(i32 noundef %0, ptr noundef %1, ptr noundef %2, i64 noundef %3, ptr noundef %4, i32 noundef %5) #5 {
  %7 = alloca i32, align 4
  %8 = alloca ptr, align 8
  %9 = alloca ptr, align 8
  %10 = alloca i64, align 8
  %11 = alloca ptr, align 8
  %12 = alloca i32, align 4
  %13 = alloca i32, align 4
  %14 = alloca i64, align 8
  %15 = alloca ptr, align 8
  store i32 %0, ptr %7, align 4, !tbaa !7
  store ptr %1, ptr %8, align 8, !tbaa !3
  store ptr %2, ptr %9, align 8, !tbaa !3
  store i64 %3, ptr %10, align 8, !tbaa !26
  store ptr %4, ptr %11, align 8, !tbaa !25
  store i32 %5, ptr %12, align 4, !tbaa !7
  call void @llvm.lifetime.start.p0(i64 4, ptr %13) #14
  store i32 0, ptr %13, align 4, !tbaa !7
  br label %16

16:                                               ; preds = %37, %6
  %17 = load i32, ptr %13, align 4, !tbaa !7
  %18 = load i32, ptr %12, align 4, !tbaa !7
  %19 = icmp ult i32 %17, %18
  br i1 %19, label %21, label %20

20:                                               ; preds = %16
  call void @llvm.lifetime.end.p0(i64 4, ptr %13) #14
  br label %40

21:                                               ; preds = %16
  call void @llvm.lifetime.start.p0(i64 8, ptr %14) #14
  %22 = load i64, ptr %10, align 8, !tbaa !26
  %23 = load i32, ptr %13, align 4, !tbaa !7
  %24 = add i32 %23, 1
  %25 = mul i32 %24, 64
  %26 = zext i32 %25 to i64
  %27 = add i64 %22, %26
  store i64 %27, ptr %14, align 8, !tbaa !26
  call void @llvm.lifetime.start.p0(i64 8, ptr %15) #14
  %28 = load ptr, ptr %11, align 8, !tbaa !25
  %29 = load i32, ptr %13, align 4, !tbaa !7
  %30 = mul i32 %29, 64
  %31 = zext i32 %30 to i64
  %32 = getelementptr i8, ptr %28, i64 %31
  store ptr %32, ptr %15, align 8, !tbaa !25
  %33 = load ptr, ptr %8, align 8, !tbaa !3
  %34 = load ptr, ptr %9, align 8, !tbaa !3
  %35 = load i64, ptr %14, align 8, !tbaa !26
  %36 = load ptr, ptr %15, align 8, !tbaa !25
  call void @update_block(ptr noundef %33, ptr noundef %34, i1 noundef zeroext false, i1 noundef zeroext false, i64 noundef %35, ptr noundef %36)
  call void @llvm.lifetime.end.p0(i64 8, ptr %15) #14
  call void @llvm.lifetime.end.p0(i64 8, ptr %14) #14
  br label %37

37:                                               ; preds = %21
  %38 = load i32, ptr %13, align 4, !tbaa !7
  %39 = add i32 %38, 1
  store i32 %39, ptr %13, align 4, !tbaa !7
  br label %16, !llvm.loop !27

40:                                               ; preds = %20
  ret void
}